; ModuleID = 'source-C-CXX/60/311.cpp'
source_filename = "source-C-CXX/60/311.cpp"
target datalayout = "e-m:e-p270:32:32-p271:32:32-p272:64:64-i64:64-f80:128-n8:16:32:64-S128"
target triple = "x86_64-pc-linux-gnu"

%"class.std::ios_base::Init" = type { i8 }
%"class.std::basic_istream" = type { i32 (...)**, i64, %"class.std::basic_ios" }
%"class.std::basic_ios" = type { %"class.std::ios_base", %"class.std::basic_ostream"*, i8, i8, %"class.std::basic_streambuf"*, %"class.std::ctype"*, %"class.std::num_put"*, %"class.std::num_get"* }
%"class.std::ios_base" = type { i32 (...)**, i64, i64, i32, i32, i32, %"struct.std::ios_base::_Callback_list"*, %"struct.std::ios_base::_Words", [8 x %"struct.std::ios_base::_Words"], i32, %"struct.std::ios_base::_Words"*, %"class.std::locale" }
%"struct.std::ios_base::_Callback_list" = type { %"struct.std::ios_base::_Callback_list"*, void (i32, %"class.std::ios_base"*, i32)*, i32, i32 }
%"struct.std::ios_base::_Words" = type { i8*, i64 }
%"class.std::locale" = type { %"class.std::locale::_Impl"* }
%"class.std::locale::_Impl" = type { i32, %"class.std::locale::facet"**, i64, %"class.std::locale::facet"**, i8** }
%"class.std::locale::facet" = type <{ i32 (...)**, i32, [4 x i8] }>
%"class.std::basic_ostream" = type { i32 (...)**, %"class.std::basic_ios" }
%"class.std::basic_streambuf" = type { i32 (...)**, i8*, i8*, i8*, i8*, i8*, i8*, %"class.std::locale" }
%"class.std::ctype" = type <{ %"class.std::locale::facet.base", [4 x i8], %struct.__locale_struct*, i8, [7 x i8], i32*, i32*, i16*, i8, [256 x i8], [256 x i8], i8, [6 x i8] }>
%"class.std::locale::facet.base" = type <{ i32 (...)**, i32 }>
%struct.__locale_struct = type { [13 x %struct.__locale_data*], i16*, i32*, i32*, [13 x i8*] }
%struct.__locale_data = type opaque
%"class.std::num_put" = type { %"class.std::locale::facet.base", [4 x i8] }
%"class.std::num_get" = type { %"class.std::locale::facet.base", [4 x i8] }

@_ZStL8__ioinit = internal global %"class.std::ios_base::Init" zeroinitializer, align 1
@__dso_handle = external hidden global i8
@_ZSt3cin = external global %"class.std::basic_istream", align 8
@_ZSt4cout = external global %"class.std::basic_ostream", align 8
@llvm.global_ctors = appending global [1 x { i32, void ()*, i8* }] [{ i32, void ()*, i8* } { i32 65535, void ()* @_GLOBAL__sub_I_311.cpp, i8* null }]

declare void @_ZNSt8ios_base4InitC1Ev(%"class.std::ios_base::Init"* nonnull align 1 dereferenceable(1)) unnamed_addr #0

; Function Attrs: nounwind
declare void @_ZNSt8ios_base4InitD1Ev(%"class.std::ios_base::Init"* nonnull align 1 dereferenceable(1)) unnamed_addr #1

; Function Attrs: nofree nounwind
declare i32 @__cxa_atexit(void (i8*)*, i8*, i8*) local_unnamed_addr #2

; Function Attrs: mustprogress norecurse sspstrong uwtable
define dso_local i32 @main() local_unnamed_addr #3 {
  %1 = alloca i8, align 1
  %2 = alloca i8, align 1
  %3 = alloca i32, align 4
  %4 = bitcast i32* %3 to i8*
  call void @llvm.lifetime.start.p0i8(i64 4, i8* nonnull %4) #8
  %5 = call nonnull align 8 dereferenceable(16) %"class.std::basic_istream"* @_ZNSirsERi(%"class.std::basic_istream"* nonnull align 8 dereferenceable(16) @_ZSt3cin, i32* nonnull align 4 dereferenceable(4) %3)
  %6 = load i32, i32* %3, align 4, !tbaa !5
  %7 = zext i32 %6 to i64
  %8 = call i8* @llvm.stacksave()
  %9 = alloca i32, i64 %7, align 16
  %10 = icmp sgt i32 %6, 0
  br i1 %10, label %12, label %139

11:                                               ; preds = %12
  br i1 %10, label %18, label %139

12:                                               ; preds = %0, %12
  %13 = phi i64 [ %16, %12 ], [ 0, %0 ]
  %14 = getelementptr inbounds i32, i32* %9, i64 %13
  %15 = call nonnull align 8 dereferenceable(16) %"class.std::basic_istream"* @_ZNSirsERi(%"class.std::basic_istream"* nonnull align 8 dereferenceable(16) @_ZSt3cin, i32* nonnull align 4 dereferenceable(4) %14)
  %16 = add nuw nsw i64 %13, 1
  %17 = icmp eq i64 %16, %7
  br i1 %17, label %11, label %12, !llvm.loop !9

18:                                               ; preds = %11, %134
  %19 = phi i64 [ %137, %134 ], [ 0, %11 ]
  %20 = getelementptr inbounds i32, i32* %9, i64 %19
  %21 = load i32, i32* %20, align 4, !tbaa !5
  %22 = icmp slt i32 %21, 3
  br i1 %22, label %67, label %23

23:                                               ; preds = %18
  %24 = add i32 %21, -3
  %25 = lshr i32 %24, 1
  %26 = add nuw i32 %25, 1
  %27 = and i32 %26, 7
  %28 = icmp ult i32 %24, 14
  br i1 %28, label %53, label %29

29:                                               ; preds = %23
  %30 = and i32 %26, -8
  br label %31

31:                                               ; preds = %31, %29
  %32 = phi i32 [ 1, %29 ], [ %49, %31 ]
  %33 = phi i32 [ 1, %29 ], [ %50, %31 ]
  %34 = phi i32 [ %30, %29 ], [ %51, %31 ]
  %35 = add nsw i32 %32, %33
  %36 = add nsw i32 %35, %33
  %37 = add nsw i32 %35, %36
  %38 = add nsw i32 %37, %36
  %39 = add nsw i32 %37, %38
  %40 = add nsw i32 %39, %38
  %41 = add nsw i32 %39, %40
  %42 = add nsw i32 %41, %40
  %43 = add nsw i32 %41, %42
  %44 = add nsw i32 %43, %42
  %45 = add nsw i32 %43, %44
  %46 = add nsw i32 %45, %44
  %47 = add nsw i32 %45, %46
  %48 = add nsw i32 %47, %46
  %49 = add nsw i32 %47, %48
  %50 = add nsw i32 %49, %48
  %51 = add i32 %34, -8
  %52 = icmp eq i32 %51, 0
  br i1 %52, label %53, label %31, !llvm.loop !11

53:                                               ; preds = %31, %23
  %54 = phi i32 [ undef, %23 ], [ %49, %31 ]
  %55 = phi i32 [ undef, %23 ], [ %50, %31 ]
  %56 = phi i32 [ 1, %23 ], [ %49, %31 ]
  %57 = phi i32 [ 1, %23 ], [ %50, %31 ]
  %58 = icmp eq i32 %27, 0
  br i1 %58, label %67, label %59

59:                                               ; preds = %53, %59
  %60 = phi i32 [ %63, %59 ], [ %56, %53 ]
  %61 = phi i32 [ %64, %59 ], [ %57, %53 ]
  %62 = phi i32 [ %65, %59 ], [ %27, %53 ]
  %63 = add nsw i32 %60, %61
  %64 = add nsw i32 %63, %61
  %65 = add i32 %62, -1
  %66 = icmp eq i32 %65, 0
  br i1 %66, label %67, label %59, !llvm.loop !12

67:                                               ; preds = %53, %59, %18
  %68 = phi i32 [ 1, %18 ], [ %55, %53 ], [ %64, %59 ]
  %69 = phi i32 [ 1, %18 ], [ %54, %53 ], [ %63, %59 ]
  %70 = srem i32 %21, 2
  %71 = icmp eq i32 %70, 1
  br i1 %71, label %72, label %103

72:                                               ; preds = %67
  %73 = call nonnull align 8 dereferenceable(8) %"class.std::basic_ostream"* @_ZNSolsEi(%"class.std::basic_ostream"* nonnull align 8 dereferenceable(8) @_ZSt4cout, i32 %69)
  call void @llvm.lifetime.start.p0i8(i64 1, i8* nonnull %2)
  store i8 10, i8* %2, align 1, !tbaa !14
  %74 = call nonnull align 8 dereferenceable(8) %"class.std::basic_ostream"* @_ZSt16__ostream_insertIcSt11char_traitsIcEERSt13basic_ostreamIT_T0_ES6_PKS3_l(%"class.std::basic_ostream"* nonnull align 8 dereferenceable(8) %73, i8* nonnull %2, i64 1)
  call void @llvm.lifetime.end.p0i8(i64 1, i8* nonnull %2)
  %75 = bitcast %"class.std::basic_ostream"* %74 to i8**
  %76 = load i8*, i8** %75, align 8, !tbaa !15
  %77 = getelementptr i8, i8* %76, i64 -24
  %78 = bitcast i8* %77 to i64*
  %79 = load i64, i64* %78, align 8
  %80 = bitcast %"class.std::basic_ostream"* %74 to i8*
  %81 = add nsw i64 %79, 240
  %82 = getelementptr inbounds i8, i8* %80, i64 %81
  %83 = bitcast i8* %82 to %"class.std::ctype"**
  %84 = load %"class.std::ctype"*, %"class.std::ctype"** %83, align 8, !tbaa !17
  %85 = icmp eq %"class.std::ctype"* %84, null
  br i1 %85, label %86, label %87

86:                                               ; preds = %72
  call void @_ZSt16__throw_bad_castv() #9
  unreachable

87:                                               ; preds = %72
  %88 = getelementptr inbounds %"class.std::ctype", %"class.std::ctype"* %84, i64 0, i32 8
  %89 = load i8, i8* %88, align 8, !tbaa !21
  %90 = icmp eq i8 %89, 0
  br i1 %90, label %94, label %91

91:                                               ; preds = %87
  %92 = getelementptr inbounds %"class.std::ctype", %"class.std::ctype"* %84, i64 0, i32 9, i64 10
  %93 = load i8, i8* %92, align 1, !tbaa !14
  br label %100

94:                                               ; preds = %87
  call void @_ZNKSt5ctypeIcE13_M_widen_initEv(%"class.std::ctype"* nonnull align 8 dereferenceable(570) %84)
  %95 = bitcast %"class.std::ctype"* %84 to i8 (%"class.std::ctype"*, i8)***
  %96 = load i8 (%"class.std::ctype"*, i8)**, i8 (%"class.std::ctype"*, i8)*** %95, align 8, !tbaa !15
  %97 = getelementptr inbounds i8 (%"class.std::ctype"*, i8)*, i8 (%"class.std::ctype"*, i8)** %96, i64 6
  %98 = load i8 (%"class.std::ctype"*, i8)*, i8 (%"class.std::ctype"*, i8)** %97, align 8
  %99 = call signext i8 %98(%"class.std::ctype"* nonnull align 8 dereferenceable(570) %84, i8 signext 10)
  br label %100

100:                                              ; preds = %91, %94
  %101 = phi i8 [ %93, %91 ], [ %99, %94 ]
  %102 = call nonnull align 8 dereferenceable(8) %"class.std::basic_ostream"* @_ZNSo3putEc(%"class.std::basic_ostream"* nonnull align 8 dereferenceable(8) %74, i8 signext %101)
  br label %134

103:                                              ; preds = %67
  %104 = call nonnull align 8 dereferenceable(8) %"class.std::basic_ostream"* @_ZNSolsEi(%"class.std::basic_ostream"* nonnull align 8 dereferenceable(8) @_ZSt4cout, i32 %68)
  call void @llvm.lifetime.start.p0i8(i64 1, i8* nonnull %1)
  store i8 10, i8* %1, align 1, !tbaa !14
  %105 = call nonnull align 8 dereferenceable(8) %"class.std::basic_ostream"* @_ZSt16__ostream_insertIcSt11char_traitsIcEERSt13basic_ostreamIT_T0_ES6_PKS3_l(%"class.std::basic_ostream"* nonnull align 8 dereferenceable(8) %104, i8* nonnull %1, i64 1)
  call void @llvm.lifetime.end.p0i8(i64 1, i8* nonnull %1)
  %106 = bitcast %"class.std::basic_ostream"* %105 to i8**
  %107 = load i8*, i8** %106, align 8, !tbaa !15
  %108 = getelementptr i8, i8* %107, i64 -24
  %109 = bitcast i8* %108 to i64*
  %110 = load i64, i64* %109, align 8
  %111 = bitcast %"class.std::basic_ostream"* %105 to i8*
  %112 = add nsw i64 %110, 240
  %113 = getelementptr inbounds i8, i8* %111, i64 %112
  %114 = bitcast i8* %113 to %"class.std::ctype"**
  %115 = load %"class.std::ctype"*, %"class.std::ctype"** %114, align 8, !tbaa !17
  %116 = icmp eq %"class.std::ctype"* %115, null
  br i1 %116, label %117, label %118

117:                                              ; preds = %103
  call void @_ZSt16__throw_bad_castv() #9
  unreachable

118:                                              ; preds = %103
  %119 = getelementptr inbounds %"class.std::ctype", %"class.std::ctype"* %115, i64 0, i32 8
  %120 = load i8, i8* %119, align 8, !tbaa !21
  %121 = icmp eq i8 %120, 0
  br i1 %121, label %125, label %122

122:                                              ; preds = %118
  %123 = getelementptr inbounds %"class.std::ctype", %"class.std::ctype"* %115, i64 0, i32 9, i64 10
  %124 = load i8, i8* %123, align 1, !tbaa !14
  br label %131

125:                                              ; preds = %118
  call void @_ZNKSt5ctypeIcE13_M_widen_initEv(%"class.std::ctype"* nonnull align 8 dereferenceable(570) %115)
  %126 = bitcast %"class.std::ctype"* %115 to i8 (%"class.std::ctype"*, i8)***
  %127 = load i8 (%"class.std::ctype"*, i8)**, i8 (%"class.std::ctype"*, i8)*** %126, align 8, !tbaa !15
  %128 = getelementptr inbounds i8 (%"class.std::ctype"*, i8)*, i8 (%"class.std::ctype"*, i8)** %127, i64 6
  %129 = load i8 (%"class.std::ctype"*, i8)*, i8 (%"class.std::ctype"*, i8)** %128, align 8
  %130 = call signext i8 %129(%"class.std::ctype"* nonnull align 8 dereferenceable(570) %115, i8 signext 10)
  br label %131

131:                                              ; preds = %122, %125
  %132 = phi i8 [ %124, %122 ], [ %130, %125 ]
  %133 = call nonnull align 8 dereferenceable(8) %"class.std::basic_ostream"* @_ZNSo3putEc(%"class.std::basic_ostream"* nonnull align 8 dereferenceable(8) %105, i8 signext %132)
  br label %134

134:                                              ; preds = %100, %131
  %135 = phi %"class.std::basic_ostream"* [ %102, %100 ], [ %133, %131 ]
  %136 = call nonnull align 8 dereferenceable(8) %"class.std::basic_ostream"* @_ZNSo5flushEv(%"class.std::basic_ostream"* nonnull align 8 dereferenceable(8) %135)
  %137 = add nuw nsw i64 %19, 1
  %138 = icmp eq i64 %137, %7
  br i1 %138, label %139, label %18, !llvm.loop !23

139:                                              ; preds = %134, %0, %11
  call void @llvm.stackrestore(i8* %8)
  call void @llvm.lifetime.end.p0i8(i64 4, i8* nonnull %4) #8
  ret i32 0
}

; Function Attrs: argmemonly mustprogress nofree nosync nounwind willreturn
declare void @llvm.lifetime.start.p0i8(i64 immarg, i8* nocapture) #4

declare nonnull align 8 dereferenceable(16) %"class.std::basic_istream"* @_ZNSirsERi(%"class.std::basic_istream"* nonnull align 8 dereferenceable(16), i32* nonnull align 4 dereferenceable(4)) local_unnamed_addr #0

; Function Attrs: mustprogress nofree nosync nounwind willreturn
declare i8* @llvm.stacksave() #5

declare nonnull align 8 dereferenceable(8) %"class.std::basic_ostream"* @_ZNSolsEi(%"class.std::basic_ostream"* nonnull align 8 dereferenceable(8), i32) local_unnamed_addr #0

; Function Attrs: mustprogress nofree nosync nounwind willreturn
declare void @llvm.stackrestore(i8*) #5

; Function Attrs: argmemonly mustprogress nofree nosync nounwind willreturn
declare void @llvm.lifetime.end.p0i8(i64 immarg, i8* nocapture) #4

declare nonnull align 8 dereferenceable(8) %"class.std::basic_ostream"* @_ZSt16__ostream_insertIcSt11char_traitsIcEERSt13basic_ostreamIT_T0_ES6_PKS3_l(%"class.std::basic_ostream"* nonnull align 8 dereferenceable(8), i8*, i64) local_unnamed_addr #0

declare nonnull align 8 dereferenceable(8) %"class.std::basic_ostream"* @_ZNSo3putEc(%"class.std::basic_ostream"* nonnull align 8 dereferenceable(8), i8 signext) local_unnamed_addr #0

declare nonnull align 8 dereferenceable(8) %"class.std::basic_ostream"* @_ZNSo5flushEv(%"class.std::basic_ostream"* nonnull align 8 dereferenceable(8)) local_unnamed_addr #0

; Function Attrs: noreturn
declare void @_ZSt16__throw_bad_castv() local_unnamed_addr #6

declare void @_ZNKSt5ctypeIcE13_M_widen_initEv(%"class.std::ctype"* nonnull align 8 dereferenceable(570)) local_unnamed_addr #0

; Function Attrs: sspstrong uwtable
define internal void @_GLOBAL__sub_I_311.cpp() #7 section ".text.startup" {
  tail call void @_ZNSt8ios_base4InitC1Ev(%"class.std::ios_base::Init"* nonnull align 1 dereferenceable(1) @_ZStL8__ioinit)
  %1 = tail call i32 @__cxa_atexit(void (i8*)* bitcast (void (%"class.std::ios_base::Init"*)* @_ZNSt8ios_base4InitD1Ev to void (i8*)*), i8* getelementptr inbounds (%"class.std::ios_base::Init", %"class.std::ios_base::Init"* @_ZStL8__ioinit, i64 0, i32 0), i8* nonnull @__dso_handle) #8
  ret void
}


!llvm.module.flags = !{!0, !1, !2, !3}
!llvm.ident = !{!4}

!0 = !{i32 1, !"wchar_size", i32 4}
!1 = !{i32 7, !"PIC Level", i32 2}
!2 = !{i32 7, !"PIE Level", i32 2}
!3 = !{i32 7, !"uwtable", i32 1}
!4 = !{!"clang version 13.0.0"}
!5 = !{!6, !6, i64 0}
!6 = !{!"int", !7, i64 0}
!7 = !{!"omnipotent char", !8, i64 0}
!8 = !{!"Simple C++ TBAA"}
!9 = distinct !{!9, !10}
!10 = !{!"llvm.loop.mustprogress"}
!11 = distinct !{!11, !10}
!12 = distinct !{!12, !13}
!13 = !{!"llvm.loop.unroll.disable"}
!14 = !{!7, !7, i64 0}
!15 = !{!16, !16, i64 0}
!16 = !{!"vtable pointer", !8, i64 0}
!17 = !{!18, !19, i64 240}
!18 = !{!"_ZTSSt9basic_iosIcSt11char_traitsIcEE", !19, i64 216, !7, i64 224, !20, i64 225, !19, i64 232, !19, i64 240, !19, i64 248, !19, i64 256}
!19 = !{!"any pointer", !7, i64 0}
!20 = !{!"bool", !7, i64 0}
!21 = !{!22, !7, i64 56}
!22 = !{!"_ZTSSt5ctypeIcE", !19, i64 16, !20, i64 24, !19, i64 32, !19, i64 40, !19, i64 48, !7, i64 56, !7, i64 57, !7, i64 313, !7, i64 569}
!23 = distinct !{!23, !10}
